target datalayout = "e-m:e-p270:32:32-p271:32:32-p272:64:64-i64:64-i128:128-f80:128-n8:16:32:64-S128"
target triple = "x86_64-pc-linux-gnu"

%struct.bitmap_writer = type { ptr, ptr, ptr, ptr, ptr, ptr, ptr, i32, i32, %struct.string_list, ptr, i32, ptr, i32, [32 x i8] }
%struct.string_list = type { ptr, i64, i64, i8, ptr }
%struct.packing_data = type { ptr, ptr, i32, i32, ptr, i32, ptr, ptr, ptr, ptr, %union.pthread_mutex_t, ptr, i32, i32, i64, i64, ptr, ptr, ptr }
%union.pthread_mutex_t = type { %struct.__pthread_mutex_s }
%struct.__pthread_mutex_s = type { i32, i32, i32, i32, i32, i16, i16, %struct.__pthread_internal_list }
%struct.__pthread_internal_list = type { ptr, ptr }
%struct.object_id = type { [32 x i8], i32 }
%struct.object = type { i32, %struct.object_id }
%struct.tree_desc = type { ptr, ptr, %struct.name_entry, i32, i32 }
%struct.name_entry = type { %struct.object_id, ptr, i32, i32 }
%struct.tree = type { %struct.object, ptr, i64 }

@the_repository = external global ptr, align 8
@.str.19 = private unnamed_addr constant [88 x i8] c"Failed to write bitmap index. Packfile doesn't have full closure (object %s is missing)\00", align 1
@.str.20 = private unnamed_addr constant [30 x i8] c"unable to load tree object %s\00", align 1

; Function Attrs: inlinehint nounwind uwtable
define internal i32 @oe_in_pack_pos(ptr noundef %0, ptr noundef %1) #3 {
  %3 = alloca ptr, align 8
  %4 = alloca ptr, align 8
  store ptr %0, ptr %3, align 8, !tbaa !11
  store ptr %1, ptr %4, align 8, !tbaa !65
  %5 = load ptr, ptr %3, align 8, !tbaa !11
  %6 = getelementptr inbounds nuw %struct.packing_data, ptr %5, i32 0, i32 6
  %7 = load ptr, ptr %6, align 8, !tbaa !62
  %8 = load ptr, ptr %4, align 8, !tbaa !65
  %9 = load ptr, ptr %3, align 8, !tbaa !11
  %10 = getelementptr inbounds nuw %struct.packing_data, ptr %9, i32 0, i32 1
  %11 = load ptr, ptr %10, align 8, !tbaa !69
  %12 = ptrtoint ptr %8 to i64
  %13 = ptrtoint ptr %11 to i64
  %14 = sub i64 %12, %13
  %15 = sdiv exact i64 %14, 96
  %16 = getelementptr inbounds i32, ptr %7, i64 %15
  %17 = load i32, ptr %16, align 4, !tbaa !29
  ret i32 %17
}

; Function Attrs: inlinehint nounwind uwtable
define internal i32 @object_type(i32 noundef %0) #3 {
  %2 = alloca i32, align 4
  store i32 %0, ptr %2, align 4, !tbaa !29
  %3 = load i32, ptr %2, align 4, !tbaa !29
  %4 = and i32 %3, 61440
  %5 = icmp eq i32 %4, 16384
  br i1 %5, label %6, label %7

6:                                                ; preds = %1
  br label %12

7:                                                ; preds = %1
  %8 = load i32, ptr %2, align 4, !tbaa !29
  %9 = and i32 %8, 61440
  %10 = icmp eq i32 %9, 57344
  %11 = select i1 %10, i32 1, i32 3
  br label %12

12:                                               ; preds = %7, %6
  %13 = phi i32 [ 2, %6 ], [ %11, %7 ]
  ret i32 %13
}

; Function Attrs: inlinehint nounwind uwtable
define internal i32 @parse_tree(ptr noundef %0) #3 {
  %2 = alloca ptr, align 8
  store ptr %0, ptr %2, align 8, !tbaa !211
  %3 = load ptr, ptr %2, align 8, !tbaa !211
  %4 = call i32 @parse_tree_gently(ptr noundef %3, i32 noundef 0)
  ret i32 %4
}

; Function Attrs: nounwind uwtable
define internal i32 @find_object_pos(ptr noundef %0, ptr noundef %1, ptr noundef %2) #0 {
  %4 = alloca i32, align 4
  %5 = alloca ptr, align 8
  %6 = alloca ptr, align 8
  %7 = alloca ptr, align 8
  %8 = alloca ptr, align 8
  %9 = alloca i32, align 4
  store ptr %0, ptr %5, align 8, !tbaa !4
  store ptr %1, ptr %6, align 8, !tbaa !70
  store ptr %2, ptr %7, align 8, !tbaa !79
  call void @llvm.lifetime.start.p0(i64 8, ptr %8) #12
  %10 = load ptr, ptr %5, align 8, !tbaa !4
  %11 = getelementptr inbounds nuw %struct.bitmap_writer, ptr %10, i32 0, i32 5
  %12 = load ptr, ptr %11, align 8, !tbaa !24
  %13 = load ptr, ptr %6, align 8, !tbaa !70
  %14 = call ptr @packlist_find(ptr noundef %12, ptr noundef %13)
  store ptr %14, ptr %8, align 8, !tbaa !65
  %15 = load ptr, ptr %8, align 8, !tbaa !65
  %16 = icmp ne ptr %15, null
  br i1 %16, label %25, label %17

17:                                               ; preds = %3
  %18 = load ptr, ptr %7, align 8, !tbaa !79
  %19 = icmp ne ptr %18, null
  br i1 %19, label %20, label %22

20:                                               ; preds = %17
  %21 = load ptr, ptr %7, align 8, !tbaa !79
  store i32 0, ptr %21, align 4, !tbaa !29
  br label %22

22:                                               ; preds = %20, %17
  %23 = load ptr, ptr %6, align 8, !tbaa !70
  %24 = call ptr @oid_to_hex(ptr noundef %23)
  call void (ptr, ...) @warning(ptr noundef @.str.19, ptr noundef %24)
  store i32 0, ptr %4, align 4
  store i32 1, ptr %9, align 4
  br label %36

25:                                               ; preds = %3
  %26 = load ptr, ptr %7, align 8, !tbaa !79
  %27 = icmp ne ptr %26, null
  br i1 %27, label %28, label %30

28:                                               ; preds = %25
  %29 = load ptr, ptr %7, align 8, !tbaa !79
  store i32 1, ptr %29, align 4, !tbaa !29
  br label %30

30:                                               ; preds = %28, %25
  %31 = load ptr, ptr %5, align 8, !tbaa !4
  %32 = getelementptr inbounds nuw %struct.bitmap_writer, ptr %31, i32 0, i32 5
  %33 = load ptr, ptr %32, align 8, !tbaa !24
  %34 = load ptr, ptr %8, align 8, !tbaa !65
  %35 = call i32 @oe_in_pack_pos(ptr noundef %33, ptr noundef %34)
  store i32 %35, ptr %4, align 4
  store i32 1, ptr %9, align 4
  br label %36

36:                                               ; preds = %30, %22
  call void @llvm.lifetime.end.p0(i64 8, ptr %8) #12
  %37 = load i32, ptr %4, align 4
  ret i32 %37
}

; Function Attrs: nounwind uwtable
define internal i32 @fill_bitmap_tree(ptr noundef %0, ptr noundef %1, ptr noundef %2) #0 {
  %4 = alloca i32, align 4
  %5 = alloca ptr, align 8
  %6 = alloca ptr, align 8
  %7 = alloca ptr, align 8
  %8 = alloca i32, align 4
  %9 = alloca i32, align 4
  %10 = alloca %struct.tree_desc, align 8
  %11 = alloca %struct.name_entry, align 8
  %12 = alloca i32, align 4
  store ptr %0, ptr %5, align 8, !tbaa !4
  store ptr %1, ptr %6, align 8, !tbaa !127
  store ptr %2, ptr %7, align 8, !tbaa !211
  call void @llvm.lifetime.start.p0(i64 4, ptr %8) #12
  call void @llvm.lifetime.start.p0(i64 4, ptr %9) #12
  call void @llvm.lifetime.start.p0(i64 80, ptr %10) #12
  call void @llvm.lifetime.start.p0(i64 56, ptr %11) #12
  %13 = load ptr, ptr %5, align 8, !tbaa !4
  %14 = load ptr, ptr %7, align 8, !tbaa !211
  %15 = getelementptr inbounds nuw %struct.tree, ptr %14, i32 0, i32 0
  %16 = getelementptr inbounds nuw %struct.object, ptr %15, i32 0, i32 1
  %17 = call i32 @find_object_pos(ptr noundef %13, ptr noundef %16, ptr noundef %8)
  store i32 %17, ptr %9, align 4, !tbaa !29
  %18 = load i32, ptr %8, align 4, !tbaa !29
  %19 = icmp ne i32 %18, 0
  br i1 %19, label %21, label %20

20:                                               ; preds = %3
  store i32 -1, ptr %4, align 4
  store i32 1, ptr %12, align 4
  br label %82

21:                                               ; preds = %3
  %22 = load ptr, ptr %6, align 8, !tbaa !127
  %23 = load i32, ptr %9, align 4, !tbaa !29
  %24 = zext i32 %23 to i64
  %25 = call i32 @bitmap_get(ptr noundef %22, i64 noundef %24)
  %26 = icmp ne i32 %25, 0
  br i1 %26, label %27, label %28

27:                                               ; preds = %21
  store i32 0, ptr %4, align 4
  store i32 1, ptr %12, align 4
  br label %82

28:                                               ; preds = %21
  %29 = load ptr, ptr %6, align 8, !tbaa !127
  %30 = load i32, ptr %9, align 4, !tbaa !29
  %31 = zext i32 %30 to i64
  call void @bitmap_set(ptr noundef %29, i64 noundef %31)
  %32 = load ptr, ptr %7, align 8, !tbaa !211
  %33 = call i32 @parse_tree(ptr noundef %32)
  %34 = icmp slt i32 %33, 0
  br i1 %34, label %35, label %40

35:                                               ; preds = %28
  %36 = load ptr, ptr %7, align 8, !tbaa !211
  %37 = getelementptr inbounds nuw %struct.tree, ptr %36, i32 0, i32 0
  %38 = getelementptr inbounds nuw %struct.object, ptr %37, i32 0, i32 1
  %39 = call ptr @oid_to_hex(ptr noundef %38)
  call void (ptr, ...) @die(ptr noundef @.str.20, ptr noundef %39) #11
  unreachable

40:                                               ; preds = %28
  %41 = load ptr, ptr %7, align 8, !tbaa !211
  %42 = getelementptr inbounds nuw %struct.tree, ptr %41, i32 0, i32 0
  %43 = getelementptr inbounds nuw %struct.object, ptr %42, i32 0, i32 1
  %44 = load ptr, ptr %7, align 8, !tbaa !211
  %45 = getelementptr inbounds nuw %struct.tree, ptr %44, i32 0, i32 1
  %46 = load ptr, ptr %45, align 8, !tbaa !212
  %47 = load ptr, ptr %7, align 8, !tbaa !211
  %48 = getelementptr inbounds nuw %struct.tree, ptr %47, i32 0, i32 2
  %49 = load i64, ptr %48, align 8, !tbaa !214
  call void @init_tree_desc(ptr noundef %10, ptr noundef %43, ptr noundef %46, i64 noundef %49)
  br label %50

50:                                               ; preds = %79, %40
  %51 = call i32 @tree_entry(ptr noundef %10, ptr noundef %11)
  %52 = icmp ne i32 %51, 0
  br i1 %52, label %53, label %80

53:                                               ; preds = %50
  %54 = getelementptr inbounds nuw %struct.name_entry, ptr %11, i32 0, i32 3
  %55 = load i32, ptr %54, align 4, !tbaa !215
  %56 = call i32 @object_type(i32 noundef %55)
  switch i32 %56, label %78 [
    i32 2, label %57
    i32 3, label %67
  ]

57:                                               ; preds = %53
  %58 = load ptr, ptr %5, align 8, !tbaa !4
  %59 = load ptr, ptr %6, align 8, !tbaa !127
  %60 = load ptr, ptr @the_repository, align 8, !tbaa !9
  %61 = getelementptr inbounds nuw %struct.name_entry, ptr %11, i32 0, i32 0
  %62 = call ptr @lookup_tree(ptr noundef %60, ptr noundef %61)
  %63 = call i32 @fill_bitmap_tree(ptr noundef %58, ptr noundef %59, ptr noundef %62)
  %64 = icmp slt i32 %63, 0
  br i1 %64, label %65, label %66

65:                                               ; preds = %57
  store i32 -1, ptr %4, align 4
  store i32 1, ptr %12, align 4
  br label %82

66:                                               ; preds = %57
  br label %79

67:                                               ; preds = %53
  %68 = load ptr, ptr %5, align 8, !tbaa !4
  %69 = getelementptr inbounds nuw %struct.name_entry, ptr %11, i32 0, i32 0
  %70 = call i32 @find_object_pos(ptr noundef %68, ptr noundef %69, ptr noundef %8)
  store i32 %70, ptr %9, align 4, !tbaa !29
  %71 = load i32, ptr %8, align 4, !tbaa !29
  %72 = icmp ne i32 %71, 0
  br i1 %72, label %74, label %73

73:                                               ; preds = %67
  store i32 -1, ptr %4, align 4
  store i32 1, ptr %12, align 4
  br label %82

74:                                               ; preds = %67
  %75 = load ptr, ptr %6, align 8, !tbaa !127
  %76 = load i32, ptr %9, align 4, !tbaa !29
  %77 = zext i32 %76 to i64
  call void @bitmap_set(ptr noundef %75, i64 noundef %77)
  br label %79

78:                                               ; preds = %53
  br label %79

79:                                               ; preds = %78, %74, %66
  br label %50, !llvm.loop !217

80:                                               ; preds = %50
  %81 = load ptr, ptr %7, align 8, !tbaa !211
  call void @free_tree_buffer(ptr noundef %81)
  store i32 0, ptr %4, align 4
  store i32 1, ptr %12, align 4
  br label %82

82:                                               ; preds = %80, %73, %65, %27, %20
  call void @llvm.lifetime.end.p0(i64 56, ptr %11) #12
  call void @llvm.lifetime.end.p0(i64 80, ptr %10) #12
  call void @llvm.lifetime.end.p0(i64 4, ptr %9) #12
  call void @llvm.lifetime.end.p0(i64 4, ptr %8) #12
  %83 = load i32, ptr %4, align 4
  ret i32 %83
}