; Function Attrs: nounwind uwtable
define internal fastcc range(i32 -1, 1) i32 @fill_bitmap_tree(ptr noundef readonly captures(none) %0, ptr noundef %1, ptr noundef %2) unnamed_addr #0 {
  %4 = alloca %struct.tree_desc, align 8
  %5 = alloca %struct.name_entry, align 8
  call void @llvm.lifetime.start.p0(i64 80, ptr nonnull %4) #19
  call void @llvm.lifetime.start.p0(i64 56, ptr nonnull %5) #19
  %6 = getelementptr inbounds nuw i8, ptr %2, i64 4
  %7 = getelementptr inbounds nuw i8, ptr %0, i64 40
  %8 = load ptr, ptr %7, align 8, !tbaa !19
  %9 = tail call ptr @packlist_find(ptr noundef %8, ptr noundef nonnull %6) #19
  %.not.i = icmp eq ptr %9, null
  br i1 %.not.i, label %find_object_pos.exit.thread, label %11

find_object_pos.exit.thread:                      ; preds = %3
  %10 = tail call ptr @oid_to_hex(ptr noundef nonnull %6) #19
  tail call void (ptr, ...) @warning(ptr noundef nonnull @.str.19, ptr noundef %10) #19
  br label %.loopexit

11:                                               ; preds = %3
  %12 = load ptr, ptr %7, align 8, !tbaa !19
  %13 = getelementptr i8, ptr %12, i64 8
  %.val.i = load ptr, ptr %13, align 8, !tbaa !55
  %14 = getelementptr i8, ptr %12, i64 40
  %.val14.i = load ptr, ptr %14, align 8, !tbaa !52
  %15 = ptrtoint ptr %9 to i64
  %16 = ptrtoint ptr %.val.i to i64
  %17 = sub i64 %15, %16
  %18 = sdiv exact i64 %17, 24
  %19 = getelementptr inbounds i8, ptr %.val14.i, i64 %18
  %20 = load i32, ptr %19, align 4, !tbaa !31
  %21 = zext i32 %20 to i64
  %22 = tail call i32 @bitmap_get(ptr noundef %1, i64 noundef %21) #19
  %.not17 = icmp eq i32 %22, 0
  br i1 %.not17, label %23, label %.loopexit

23:                                               ; preds = %11
  tail call void @bitmap_set(ptr noundef %1, i64 noundef %21) #19
  %24 = tail call i32 @parse_tree_gently(ptr noundef nonnull %2, i32 noundef 0) #19
  %25 = icmp slt i32 %24, 0
  br i1 %25, label %26, label %28

26:                                               ; preds = %23
  %27 = tail call ptr @oid_to_hex(ptr noundef nonnull %6) #19
  tail call void (ptr, ...) @die(ptr noundef nonnull @.str.20, ptr noundef %27) #20
  unreachable

28:                                               ; preds = %23
  %29 = getelementptr inbounds nuw i8, ptr %2, i64 40
  %30 = load ptr, ptr %29, align 8, !tbaa !187
  %31 = getelementptr inbounds nuw i8, ptr %2, i64 48
  %32 = load i64, ptr %31, align 8, !tbaa !189
  call void @init_tree_desc(ptr noundef nonnull %4, ptr noundef nonnull %6, ptr noundef %30, i64 noundef %32) #19
  %33 = call i32 @tree_entry(ptr noundef nonnull %4, ptr noundef nonnull %5) #19
  %.not1833 = icmp eq i32 %33, 0
  br i1 %.not1833, label %._crit_edge, label %.lr.ph

.lr.ph:                                           ; preds = %28
  %34 = getelementptr inbounds nuw i8, ptr %5, i64 52
  br label %35

35:                                               ; preds = %.lr.ph, %62
  %36 = load i32, ptr %34, align 4, !tbaa !190
  %37 = and i32 %36, 61440
  %38 = icmp eq i32 %37, 16384
  %39 = icmp eq i32 %37, 57344
  %40 = select i1 %39, i32 1, i32 3
  %41 = select i1 %38, i32 2, i32 %40
  switch i32 %41, label %62 [
    i32 2, label %42
    i32 3, label %47
  ]

42:                                               ; preds = %35
  %43 = load ptr, ptr @the_repository, align 8, !tbaa !71
  %44 = call ptr @lookup_tree(ptr noundef %43, ptr noundef nonnull %5) #19
  %45 = call fastcc i32 @fill_bitmap_tree(ptr noundef %0, ptr noundef %1, ptr noundef %44)
  %46 = icmp slt i32 %45, 0
  br i1 %46, label %.loopexit, label %62

47:                                               ; preds = %35
  %48 = load ptr, ptr %7, align 8, !tbaa !19
  %49 = call ptr @packlist_find(ptr noundef %48, ptr noundef nonnull %5) #19
  %.not.i20 = icmp eq ptr %49, null
  br i1 %.not.i20, label %find_object_pos.exit24.thread, label %51

find_object_pos.exit24.thread:                    ; preds = %47
  %50 = call ptr @oid_to_hex(ptr noundef nonnull %5) #19
  call void (ptr, ...) @warning(ptr noundef nonnull @.str.19, ptr noundef %50) #19
  br label %.loopexit

51:                                               ; preds = %47
  %52 = load ptr, ptr %7, align 8, !tbaa !19
  %53 = getelementptr i8, ptr %52, i64 8
  %.val.i21 = load ptr, ptr %53, align 8, !tbaa !55
  %54 = getelementptr i8, ptr %52, i64 40
  %.val14.i22 = load ptr, ptr %54, align 8, !tbaa !52
  %55 = ptrtoint ptr %49 to i64
  %56 = ptrtoint ptr %.val.i21 to i64
  %57 = sub i64 %55, %56
  %58 = sdiv exact i64 %57, 24
  %59 = getelementptr inbounds i8, ptr %.val14.i22, i64 %58
  %60 = load i32, ptr %59, align 4, !tbaa !31
  %61 = zext i32 %60 to i64
  call void @bitmap_set(ptr noundef %1, i64 noundef %61) #19
  br label %62

62:                                               ; preds = %35, %42, %51
  %63 = call i32 @tree_entry(ptr noundef nonnull %4, ptr noundef nonnull %5) #19
  %.not18 = icmp eq i32 %63, 0
  br i1 %.not18, label %._crit_edge, label %35, !llvm.loop !192

._crit_edge:                                      ; preds = %62, %28
  call void @free_tree_buffer(ptr noundef nonnull %2) #19
  br label %.loopexit

.loopexit:                                        ; preds = %42, %find_object_pos.exit24.thread, %find_object_pos.exit.thread, %11, %._crit_edge
  %.0 = phi i32 [ 0, %._crit_edge ], [ 0, %11 ], [ -1, %find_object_pos.exit.thread ], [ -1, %find_object_pos.exit24.thread ], [ -1, %42 ]
  call void @llvm.lifetime.end.p0(i64 56, ptr nonnull %5) #19
  call void @llvm.lifetime.end.p0(i64 80, ptr nonnull %4) #19
  ret i32 %.0
}